target datalayout = "e-m:e-p270:32:32-p271:32:32-p272:64:64-i64:64-i128:128-f80:128-n8:16:32:64-S128"
target triple = "x86_64-pc-linux-gnu"

%struct.epan_column_info = type { ptr, i32, ptr, ptr, ptr, %struct.col_expr_t, i32, ptr }
%struct.col_expr_t = type { ptr, ptr }
%struct.col_item_t = type { i32, ptr, ptr, ptr, i32, ptr, ptr, ptr, ptr, i32, i32, i32 }

@.str.5 = private unnamed_addr constant [3 x i8] c", \00", align 1

; Function Attrs: nounwind uwtable
define internal void @col_do_append_str(ptr noundef %0, i32 noundef %1, ptr noundef %2, ptr noundef %3) #0 {
  %5 = alloca ptr, align 8
  %6 = alloca i32, align 4
  %7 = alloca ptr, align 8
  %8 = alloca ptr, align 8
  %9 = alloca i32, align 4
  %10 = alloca i64, align 8
  %11 = alloca i64, align 8
  %12 = alloca ptr, align 8
  store ptr %0, ptr %5, align 8
  store i32 %1, ptr %6, align 4
  store ptr %2, ptr %7, align 8
  store ptr %3, ptr %8, align 8
  %13 = load i32, ptr %6, align 4
  %14 = icmp eq i32 %13, 25
  br i1 %14, label %15, label %16

15:                                               ; preds = %4
  store i64 4096, ptr %11, align 8
  br label %17

16:                                               ; preds = %4
  store i64 2048, ptr %11, align 8
  br label %17

17:                                               ; preds = %16, %15
  %18 = load ptr, ptr %5, align 8
  %19 = getelementptr inbounds %struct.epan_column_info, ptr %18, i32 0, i32 3
  %20 = load ptr, ptr %19, align 8
  %21 = load i32, ptr %6, align 4
  %22 = sext i32 %21 to i64
  %23 = getelementptr i32, ptr %20, i64 %22
  %24 = load i32, ptr %23, align 4
  store i32 %24, ptr %9, align 4
  br label %25

25:                                               ; preds = %102, %17
  %26 = load i32, ptr %9, align 4
  %27 = load ptr, ptr %5, align 8
  %28 = getelementptr inbounds %struct.epan_column_info, ptr %27, i32 0, i32 4
  %29 = load ptr, ptr %28, align 8
  %30 = load i32, ptr %6, align 4
  %31 = sext i32 %30 to i64
  %32 = getelementptr i32, ptr %29, i64 %31
  %33 = load i32, ptr %32, align 4
  %34 = icmp sle i32 %26, %33
  br i1 %34, label %35, label %105

35:                                               ; preds = %25
  %36 = load ptr, ptr %5, align 8
  %37 = getelementptr inbounds %struct.epan_column_info, ptr %36, i32 0, i32 2
  %38 = load ptr, ptr %37, align 8
  %39 = load i32, ptr %9, align 4
  %40 = sext i32 %39 to i64
  %41 = getelementptr %struct.col_item_t, ptr %38, i64 %40
  store ptr %41, ptr %12, align 8
  %42 = load ptr, ptr %12, align 8
  %43 = getelementptr inbounds %struct.col_item_t, ptr %42, i32 0, i32 1
  %44 = load ptr, ptr %43, align 8
  %45 = load i32, ptr %6, align 4
  %46 = sext i32 %45 to i64
  %47 = getelementptr i32, ptr %44, i64 %46
  %48 = load i32, ptr %47, align 4
  %49 = icmp ne i32 %48, 0
  br i1 %49, label %50, label %101

50:                                               ; preds = %35
  %51 = load ptr, ptr %12, align 8
  %52 = getelementptr inbounds %struct.col_item_t, ptr %51, i32 0, i32 7
  %53 = load ptr, ptr %52, align 8
  %54 = load ptr, ptr %12, align 8
  %55 = getelementptr inbounds %struct.col_item_t, ptr %54, i32 0, i32 8
  %56 = load ptr, ptr %55, align 8
  %57 = icmp ne ptr %53, %56
  br i1 %57, label %58, label %72

58:                                               ; preds = %50
  %59 = load ptr, ptr %12, align 8
  %60 = getelementptr inbounds %struct.col_item_t, ptr %59, i32 0, i32 8
  %61 = load ptr, ptr %60, align 8
  %62 = load ptr, ptr %12, align 8
  %63 = getelementptr inbounds %struct.col_item_t, ptr %62, i32 0, i32 7
  %64 = load ptr, ptr %63, align 8
  %65 = load i64, ptr %11, align 8
  %66 = call i64 @g_strlcpy(ptr noundef %61, ptr noundef %64, i64 noundef %65)
  %67 = load ptr, ptr %12, align 8
  %68 = getelementptr inbounds %struct.col_item_t, ptr %67, i32 0, i32 8
  %69 = load ptr, ptr %68, align 8
  %70 = load ptr, ptr %12, align 8
  %71 = getelementptr inbounds %struct.col_item_t, ptr %70, i32 0, i32 7
  store ptr %69, ptr %71, align 8
  br label %72

72:                                               ; preds = %58, %50
  %73 = load ptr, ptr %12, align 8
  %74 = getelementptr inbounds %struct.col_item_t, ptr %73, i32 0, i32 8
  %75 = load ptr, ptr %74, align 8
  %76 = getelementptr i8, ptr %75, i64 0
  %77 = load i8, ptr %76, align 1
  %78 = sext i8 %77 to i64
  store i64 %78, ptr %10, align 8
  %79 = load ptr, ptr %7, align 8
  %80 = icmp ne ptr %79, null
  br i1 %80, label %81, label %92

81:                                               ; preds = %72
  %82 = load i64, ptr %10, align 8
  %83 = icmp ne i64 %82, 0
  br i1 %83, label %84, label %91

84:                                               ; preds = %81
  %85 = load ptr, ptr %12, align 8
  %86 = getelementptr inbounds %struct.col_item_t, ptr %85, i32 0, i32 8
  %87 = load ptr, ptr %86, align 8
  %88 = load i64, ptr %11, align 8
  %89 = load ptr, ptr %7, align 8
  %90 = call i64 @ws_label_strcat(ptr noundef %87, i64 noundef %88, ptr noundef %89, i32 noundef 0)
  br label %91

91:                                               ; preds = %84, %81
  br label %92

92:                                               ; preds = %91, %72
  br label %93

93:                                               ; preds = %92
  br label %94

94:                                               ; preds = %93
  %95 = load ptr, ptr %12, align 8
  %96 = getelementptr inbounds %struct.col_item_t, ptr %95, i32 0, i32 8
  %97 = load ptr, ptr %96, align 8
  %98 = load i64, ptr %11, align 8
  %99 = load ptr, ptr %8, align 8
  %100 = call i64 @ws_label_strcat(ptr noundef %97, i64 noundef %98, ptr noundef %99, i32 noundef 0)
  br label %101

101:                                              ; preds = %94, %35
  br label %102

102:                                              ; preds = %101
  %103 = load i32, ptr %9, align 4
  %104 = add i32 %103, 1
  store i32 %104, ptr %9, align 4
  br label %25, !llvm.loop !27

105:                                              ; preds = %25
  ret void
}

; Function Attrs: nounwind uwtable
define i32 @col_get_writable(ptr noundef %0, i32 noundef %1) #0 {
  %3 = alloca i32, align 4
  %4 = alloca ptr, align 8
  %5 = alloca i32, align 4
  %6 = alloca i32, align 4
  %7 = alloca ptr, align 8
  store ptr %0, ptr %4, align 8
  store i32 %1, ptr %5, align 4
  %8 = load ptr, ptr %4, align 8
  %9 = icmp eq ptr %8, null
  br i1 %9, label %10, label %11

10:                                               ; preds = %2
  store i32 0, ptr %3, align 4
  br label %75

11:                                               ; preds = %2
  %12 = load i32, ptr %5, align 4
  %13 = icmp eq i32 %12, -1
  br i1 %13, label %19, label %14

14:                                               ; preds = %11
  %15 = load ptr, ptr %4, align 8
  %16 = getelementptr inbounds %struct.epan_column_info, ptr %15, i32 0, i32 6
  %17 = load i32, ptr %16, align 8
  %18 = icmp eq i32 %17, 0
  br i1 %18, label %19, label %23

19:                                               ; preds = %14, %11
  %20 = load ptr, ptr %4, align 8
  %21 = getelementptr inbounds %struct.epan_column_info, ptr %20, i32 0, i32 6
  %22 = load i32, ptr %21, align 8
  store i32 %22, ptr %3, align 4
  br label %75

23:                                               ; preds = %14
  %24 = load ptr, ptr %4, align 8
  %25 = getelementptr inbounds %struct.epan_column_info, ptr %24, i32 0, i32 3
  %26 = load ptr, ptr %25, align 8
  %27 = load i32, ptr %5, align 4
  %28 = sext i32 %27 to i64
  %29 = getelementptr i32, ptr %26, i64 %28
  %30 = load i32, ptr %29, align 4
  %31 = icmp sge i32 %30, 0
  br i1 %31, label %32, label %74

32:                                               ; preds = %23
  %33 = load ptr, ptr %4, align 8
  %34 = getelementptr inbounds %struct.epan_column_info, ptr %33, i32 0, i32 3
  %35 = load ptr, ptr %34, align 8
  %36 = load i32, ptr %5, align 4
  %37 = sext i32 %36 to i64
  %38 = getelementptr i32, ptr %35, i64 %37
  %39 = load i32, ptr %38, align 4
  store i32 %39, ptr %6, align 4
  br label %40

40:                                               ; preds = %70, %32
  %41 = load i32, ptr %6, align 4
  %42 = load ptr, ptr %4, align 8
  %43 = getelementptr inbounds %struct.epan_column_info, ptr %42, i32 0, i32 4
  %44 = load ptr, ptr %43, align 8
  %45 = load i32, ptr %5, align 4
  %46 = sext i32 %45 to i64
  %47 = getelementptr i32, ptr %44, i64 %46
  %48 = load i32, ptr %47, align 4
  %49 = icmp sle i32 %41, %48
  br i1 %49, label %50, label %73

50:                                               ; preds = %40
  %51 = load ptr, ptr %4, align 8
  %52 = getelementptr inbounds %struct.epan_column_info, ptr %51, i32 0, i32 2
  %53 = load ptr, ptr %52, align 8
  %54 = load i32, ptr %6, align 4
  %55 = sext i32 %54 to i64
  %56 = getelementptr %struct.col_item_t, ptr %53, i64 %55
  store ptr %56, ptr %7, align 8
  %57 = load ptr, ptr %7, align 8
  %58 = getelementptr inbounds %struct.col_item_t, ptr %57, i32 0, i32 1
  %59 = load ptr, ptr %58, align 8
  %60 = load i32, ptr %5, align 4
  %61 = sext i32 %60 to i64
  %62 = getelementptr i32, ptr %59, i64 %61
  %63 = load i32, ptr %62, align 4
  %64 = icmp ne i32 %63, 0
  br i1 %64, label %65, label %69

65:                                               ; preds = %50
  %66 = load ptr, ptr %7, align 8
  %67 = getelementptr inbounds %struct.col_item_t, ptr %66, i32 0, i32 10
  %68 = load i32, ptr %67, align 4
  store i32 %68, ptr %3, align 4
  br label %75

69:                                               ; preds = %50
  br label %70

70:                                               ; preds = %69
  %71 = load i32, ptr %6, align 4
  %72 = add i32 %71, 1
  store i32 %72, ptr %6, align 4
  br label %40, !llvm.loop !9

73:                                               ; preds = %40
  br label %74

74:                                               ; preds = %73, %23
  store i32 0, ptr %3, align 4
  br label %75

75:                                               ; preds = %74, %65, %19, %10
  %76 = load i32, ptr %3, align 4
  ret i32 %76
}

; Function Attrs: nounwind uwtable
define void @col_append_sep_str(ptr noundef %0, i32 noundef %1, ptr noundef %2, ptr noundef %3) #0 {
  %5 = alloca ptr, align 8
  %6 = alloca i32, align 4
  %7 = alloca ptr, align 8
  %8 = alloca ptr, align 8
  store ptr %0, ptr %5, align 8
  store i32 %1, ptr %6, align 4
  store ptr %2, ptr %7, align 8
  store ptr %3, ptr %8, align 8
  %9 = load ptr, ptr %5, align 8
  %10 = load i32, ptr %6, align 4
  %11 = call i32 @col_get_writable(ptr noundef %9, i32 noundef %10)
  %12 = icmp ne i32 %11, 0
  br i1 %12, label %13, label %22

13:                                               ; preds = %4
  %14 = load ptr, ptr %5, align 8
  %15 = getelementptr inbounds %struct.epan_column_info, ptr %14, i32 0, i32 3
  %16 = load ptr, ptr %15, align 8
  %17 = load i32, ptr %6, align 4
  %18 = sext i32 %17 to i64
  %19 = getelementptr i32, ptr %16, i64 %18
  %20 = load i32, ptr %19, align 4
  %21 = icmp sge i32 %20, 0
  br i1 %21, label %23, label %22

22:                                               ; preds = %13, %4
  br label %32

23:                                               ; preds = %13
  %24 = load ptr, ptr %7, align 8
  %25 = icmp eq ptr %24, null
  br i1 %25, label %26, label %27

26:                                               ; preds = %23
  store ptr @.str.5, ptr %7, align 8
  br label %27

27:                                               ; preds = %26, %23
  %28 = load ptr, ptr %5, align 8
  %29 = load i32, ptr %6, align 4
  %30 = load ptr, ptr %7, align 8
  %31 = load ptr, ptr %8, align 8
  call void @col_do_append_str(ptr noundef %28, i32 noundef %29, ptr noundef %30, ptr noundef %31)
  br label %32

32:                                               ; preds = %27, %22
  ret void
}