; Function Attrs: nounwind uwtable
define void @col_append_sep_str(ptr noundef readonly %0, i32 noundef %1, ptr noundef %2, ptr noundef %3) local_unnamed_addr #0 {
  %5 = icmp eq ptr %0, null
  br i1 %5, label %col_do_append_str.exit, label %6

6:                                                ; preds = %4
  %7 = icmp eq i32 %1, -1
  %.phi.trans.insert.i = getelementptr inbounds nuw i8, ptr %0, i64 56
  %.pre.i = load i32, ptr %.phi.trans.insert.i, align 8
  br i1 %7, label %col_get_writable.exit, label %8

8:                                                ; preds = %6
  %9 = icmp eq i32 %.pre.i, 0
  br i1 %9, label %col_do_append_str.exit, label %10

10:                                               ; preds = %8
  %11 = getelementptr inbounds nuw i8, ptr %0, i64 24
  %12 = load ptr, ptr %11, align 8
  %13 = sext i32 %1 to i64
  %14 = getelementptr i32, ptr %12, i64 %13
  %15 = load i32, ptr %14, align 4
  %16 = icmp sgt i32 %15, -1
  br i1 %16, label %.preheader.i, label %col_do_append_str.exit

.preheader.i:                                     ; preds = %10
  %17 = getelementptr inbounds nuw i8, ptr %0, i64 32
  %18 = load ptr, ptr %17, align 8
  %19 = getelementptr i32, ptr %18, i64 %13
  %20 = load i32, ptr %19, align 4
  %.not22.i = icmp sgt i32 %15, %20
  br i1 %.not22.i, label %col_do_append_str.exit, label %.lr.ph.i

.lr.ph.i:                                         ; preds = %.preheader.i
  %21 = getelementptr inbounds nuw i8, ptr %0, i64 16
  %22 = load ptr, ptr %21, align 8
  br label %25

23:                                               ; preds = %25
  %24 = add i32 %.01723.i, 1
  %.not.i = icmp sgt i32 %24, %20
  br i1 %.not.i, label %col_do_append_str.exit, label %25, !llvm.loop !9

25:                                               ; preds = %23, %.lr.ph.i
  %.01723.i = phi i32 [ %15, %.lr.ph.i ], [ %24, %23 ]
  %26 = sext i32 %.01723.i to i64
  %27 = getelementptr %struct.col_item_t, ptr %22, i64 %26
  %28 = getelementptr inbounds nuw i8, ptr %27, i64 8
  %29 = load ptr, ptr %28, align 8
  %30 = getelementptr i32, ptr %29, i64 %13
  %31 = load i32, ptr %30, align 4
  %.not21.i = icmp eq i32 %31, 0
  br i1 %.not21.i, label %23, label %32

32:                                               ; preds = %25
  %33 = getelementptr inbounds nuw i8, ptr %27, i64 76
  %34 = load i32, ptr %33, align 4
  br label %col_get_writable.exit

col_get_writable.exit:                            ; preds = %6, %32
  %.0.i = phi i32 [ %34, %32 ], [ %.pre.i, %6 ]
  %.not = icmp eq i32 %.0.i, 0
  br i1 %.not, label %col_do_append_str.exit, label %35

35:                                               ; preds = %col_get_writable.exit
  %36 = getelementptr inbounds nuw i8, ptr %0, i64 24
  %37 = load ptr, ptr %36, align 8
  %38 = sext i32 %1 to i64
  %39 = getelementptr i32, ptr %37, i64 %38
  %40 = load i32, ptr %39, align 4
  %41 = icmp sgt i32 %40, -1
  br i1 %41, label %42, label %col_do_append_str.exit

42:                                               ; preds = %35
  %43 = icmp eq ptr %2, null
  %spec.store.select = select i1 %43, ptr @.str.5, ptr %2
  %44 = icmp eq i32 %1, 25
  %..i = select i1 %44, i64 4096, i64 2048
  %45 = getelementptr inbounds nuw i8, ptr %0, i64 32
  %46 = load ptr, ptr %45, align 8
  %47 = getelementptr i32, ptr %46, i64 %38
  %48 = load i32, ptr %47, align 4
  %.not33.i = icmp sgt i32 %40, %48
  br i1 %.not33.i, label %col_do_append_str.exit, label %.lr.ph.i8

.lr.ph.i8:                                        ; preds = %42
  %49 = getelementptr inbounds nuw i8, ptr %0, i64 16
  br label %.lr.ph.split.i

.lr.ph.split.i:                                   ; preds = %.lr.ph.i8, %74
  %50 = phi ptr [ %75, %74 ], [ %46, %.lr.ph.i8 ]
  %.034.i = phi i32 [ %76, %74 ], [ %40, %.lr.ph.i8 ]
  %51 = load ptr, ptr %49, align 8
  %52 = sext i32 %.034.i to i64
  %53 = getelementptr %struct.col_item_t, ptr %51, i64 %52
  %54 = getelementptr inbounds nuw i8, ptr %53, i64 8
  %55 = load ptr, ptr %54, align 8
  %56 = getelementptr i32, ptr %55, i64 %38
  %57 = load i32, ptr %56, align 4
  %.not31.i = icmp eq i32 %57, 0
  br i1 %.not31.i, label %74, label %58

58:                                               ; preds = %.lr.ph.split.i
  %59 = getelementptr inbounds nuw i8, ptr %53, i64 56
  %60 = load ptr, ptr %59, align 8
  %61 = getelementptr inbounds nuw i8, ptr %53, i64 64
  %62 = load ptr, ptr %61, align 8
  %.not32.i = icmp eq ptr %60, %62
  br i1 %.not32.i, label %66, label %63

63:                                               ; preds = %58
  %64 = tail call i64 @g_strlcpy(ptr noundef %62, ptr noundef %60, i64 noundef %..i) #16
  %65 = load ptr, ptr %61, align 8
  store ptr %65, ptr %59, align 8
  br label %66

66:                                               ; preds = %63, %58
  %67 = phi ptr [ %65, %63 ], [ %62, %58 ]
  %68 = load i8, ptr %67, align 1
  %.not36.i = icmp eq i8 %68, 0
  br i1 %.not36.i, label %71, label %69

69:                                               ; preds = %66
  %70 = tail call i64 @ws_label_strcat(ptr noundef nonnull %67, i64 noundef %..i, ptr noundef nonnull %spec.store.select, i32 noundef 0) #16
  %.pre.i9 = load ptr, ptr %61, align 8
  br label %71

71:                                               ; preds = %69, %66
  %72 = phi ptr [ %.pre.i9, %69 ], [ %67, %66 ]
  %73 = tail call i64 @ws_label_strcat(ptr noundef %72, i64 noundef %..i, ptr noundef %3, i32 noundef 0) #16
  %.pre38.i = load ptr, ptr %45, align 8
  br label %74

74:                                               ; preds = %71, %.lr.ph.split.i
  %75 = phi ptr [ %50, %.lr.ph.split.i ], [ %.pre38.i, %71 ]
  %76 = add i32 %.034.i, 1
  %77 = getelementptr i32, ptr %75, i64 %38
  %78 = load i32, ptr %77, align 4
  %.not.i10 = icmp sgt i32 %76, %78
  br i1 %.not.i10, label %col_do_append_str.exit, label %.lr.ph.split.i, !llvm.loop !27

col_do_append_str.exit:                           ; preds = %23, %74, %8, %.preheader.i, %10, %4, %42, %col_get_writable.exit, %35
  ret void
}